target datalayout = "e-m:e-p270:32:32-p271:32:32-p272:64:64-i64:64-i128:128-f80:128-n8:16:32:64-S128"
target triple = "x86_64-pc-linux-gnu"

%struct.Bdc_Par_t_ = type { i32, i32, i32 }
%struct.Abc_Ntk_t_ = type { i32, i32, ptr, ptr, ptr, ptr, ptr, ptr, ptr, ptr, ptr, ptr, ptr, [11 x i32], i32, i32, i32, i32, ptr, i32, ptr, ptr, i32, i32, i32, double, i32, %struct.Vec_Int_t_, ptr, ptr, ptr, ptr, ptr, float, i32, ptr, ptr, ptr, ptr, ptr, ptr, ptr, ptr, ptr, ptr, ptr, ptr, ptr, ptr, ptr, ptr, ptr, ptr, ptr, ptr, ptr, ptr }
%struct.Vec_Int_t_ = type { i32, i32, ptr }
%struct.Abc_Obj_t_ = type { ptr, ptr, i32, i32, %struct.Vec_Int_t_, %struct.Vec_Int_t_, %union.anon, %union.anon.0 }
%union.anon = type { ptr }
%union.anon.0 = type { ptr }
%struct.Vec_Ptr_t_ = type { i32, i32, ptr }
%struct.timespec = type { i64, i64 }

@.str = private unnamed_addr constant [66 x i8] c"Resynthesis is not performed for nodes with more than 15 inputs.\0A\00", align 1
@.str.1 = private unnamed_addr constant [32 x i8] c"Total gain in AIG nodes = %d.  \00", align 1
@.str.2 = private unnamed_addr constant [5 x i8] c"%s =\00", align 1
@.str.3 = private unnamed_addr constant [14 x i8] c"Total runtime\00", align 1
@.str.4 = private unnamed_addr constant [11 x i8] c"%9.2f sec\0A\00", align 1

; Function Attrs: inlinehint nounwind uwtable
define internal ptr @Vec_PtrEntry(ptr noundef %0, i32 noundef %1) #3 {
  %3 = alloca ptr, align 8
  %4 = alloca i32, align 4
  store ptr %0, ptr %3, align 8, !tbaa !63
  store i32 %1, ptr %4, align 4, !tbaa !12
  %5 = load ptr, ptr %3, align 8, !tbaa !63
  %6 = getelementptr inbounds nuw %struct.Vec_Ptr_t_, ptr %5, i32 0, i32 2
  %7 = load ptr, ptr %6, align 8, !tbaa !71
  %8 = load i32, ptr %4, align 4, !tbaa !12
  %9 = sext i32 %8 to i64
  %10 = getelementptr inbounds ptr, ptr %7, i64 %9
  %11 = load ptr, ptr %10, align 8, !tbaa !72
  ret ptr %11
}

; Function Attrs: inlinehint nounwind uwtable
define internal void @Vec_IntFree(ptr noundef %0) #3 {
  %2 = alloca ptr, align 8
  store ptr %0, ptr %2, align 8, !tbaa !14
  %3 = load ptr, ptr %2, align 8, !tbaa !14
  %4 = getelementptr inbounds nuw %struct.Vec_Int_t_, ptr %3, i32 0, i32 2
  %5 = load ptr, ptr %4, align 8, !tbaa !62
  %6 = icmp ne ptr %5, null
  br i1 %6, label %7, label %13

7:                                                ; preds = %1
  %8 = load ptr, ptr %2, align 8, !tbaa !14
  %9 = getelementptr inbounds nuw %struct.Vec_Int_t_, ptr %8, i32 0, i32 2
  %10 = load ptr, ptr %9, align 8, !tbaa !62
  call void @free(ptr noundef %10) #9
  %11 = load ptr, ptr %2, align 8, !tbaa !14
  %12 = getelementptr inbounds nuw %struct.Vec_Int_t_, ptr %11, i32 0, i32 2
  store ptr null, ptr %12, align 8, !tbaa !62
  br label %14

13:                                               ; preds = %1
  br label %14

14:                                               ; preds = %13, %7
  %15 = load ptr, ptr %2, align 8, !tbaa !14
  %16 = icmp ne ptr %15, null
  br i1 %16, label %17, label %19

17:                                               ; preds = %14
  %18 = load ptr, ptr %2, align 8, !tbaa !14
  call void @free(ptr noundef %18) #9
  store ptr null, ptr %2, align 8, !tbaa !14
  br label %20

19:                                               ; preds = %14
  br label %20

20:                                               ; preds = %19, %17
  ret void
}

; Function Attrs: inlinehint nounwind uwtable
define internal i32 @Abc_ObjFaninNum(ptr noundef %0) #3 {
  %2 = alloca ptr, align 8
  store ptr %0, ptr %2, align 8, !tbaa !55
  %3 = load ptr, ptr %2, align 8, !tbaa !55
  %4 = getelementptr inbounds nuw %struct.Abc_Obj_t_, ptr %3, i32 0, i32 4
  %5 = getelementptr inbounds nuw %struct.Vec_Int_t_, ptr %4, i32 0, i32 1
  %6 = load i32, ptr %5, align 4, !tbaa !66
  ret i32 %6
}

; Function Attrs: inlinehint nounwind uwtable
define internal i32 @Abc_ObjIsNode(ptr noundef %0) #3 {
  %2 = alloca ptr, align 8
  store ptr %0, ptr %2, align 8, !tbaa !55
  %3 = load ptr, ptr %2, align 8, !tbaa !55
  %4 = getelementptr inbounds nuw %struct.Abc_Obj_t_, ptr %3, i32 0, i32 3
  %5 = load i32, ptr %4, align 4
  %6 = and i32 %5, 15
  %7 = icmp eq i32 %6, 7
  %8 = zext i1 %7 to i32
  ret i32 %8
}

; Function Attrs: inlinehint nounwind uwtable
define internal ptr @Abc_NtkObj(ptr noundef %0, i32 noundef %1) #3 {
  %3 = alloca ptr, align 8
  %4 = alloca i32, align 4
  store ptr %0, ptr %3, align 8, !tbaa !35
  store i32 %1, ptr %4, align 4, !tbaa !12
  %5 = load ptr, ptr %3, align 8, !tbaa !35
  %6 = getelementptr inbounds nuw %struct.Abc_Ntk_t_, ptr %5, i32 0, i32 5
  %7 = load ptr, ptr %6, align 8, !tbaa !43
  %8 = load i32, ptr %4, align 4, !tbaa !12
  %9 = call ptr @Vec_PtrEntry(ptr noundef %7, i32 noundef %8)
  ret ptr %9
}

; Function Attrs: inlinehint nounwind uwtable
define internal i32 @Vec_PtrSize(ptr noundef %0) #3 {
  %2 = alloca ptr, align 8
  store ptr %0, ptr %2, align 8, !tbaa !63
  %3 = load ptr, ptr %2, align 8, !tbaa !63
  %4 = getelementptr inbounds nuw %struct.Vec_Ptr_t_, ptr %3, i32 0, i32 1
  %5 = load i32, ptr %4, align 4, !tbaa !64
  ret i32 %5
}

; Function Attrs: inlinehint nounwind uwtable
define internal ptr @Vec_IntAlloc(i32 noundef %0) #3 {
  %2 = alloca i32, align 4
  %3 = alloca ptr, align 8
  store i32 %0, ptr %2, align 4, !tbaa !12
  call void @llvm.lifetime.start.p0(i64 8, ptr %3) #9
  %4 = call noalias ptr @malloc(i64 noundef 16) #10
  store ptr %4, ptr %3, align 8, !tbaa !14
  %5 = load i32, ptr %2, align 4, !tbaa !12
  %6 = icmp sgt i32 %5, 0
  br i1 %6, label %7, label %11

7:                                                ; preds = %1
  %8 = load i32, ptr %2, align 4, !tbaa !12
  %9 = icmp slt i32 %8, 16
  br i1 %9, label %10, label %11

10:                                               ; preds = %7
  store i32 16, ptr %2, align 4, !tbaa !12
  br label %11

11:                                               ; preds = %10, %7, %1
  %12 = load ptr, ptr %3, align 8, !tbaa !14
  %13 = getelementptr inbounds nuw %struct.Vec_Int_t_, ptr %12, i32 0, i32 1
  store i32 0, ptr %13, align 4, !tbaa !60
  %14 = load i32, ptr %2, align 4, !tbaa !12
  %15 = load ptr, ptr %3, align 8, !tbaa !14
  %16 = getelementptr inbounds nuw %struct.Vec_Int_t_, ptr %15, i32 0, i32 0
  store i32 %14, ptr %16, align 8, !tbaa !61
  %17 = load ptr, ptr %3, align 8, !tbaa !14
  %18 = getelementptr inbounds nuw %struct.Vec_Int_t_, ptr %17, i32 0, i32 0
  %19 = load i32, ptr %18, align 8, !tbaa !61
  %20 = icmp ne i32 %19, 0
  br i1 %20, label %21, label %28

21:                                               ; preds = %11
  %22 = load ptr, ptr %3, align 8, !tbaa !14
  %23 = getelementptr inbounds nuw %struct.Vec_Int_t_, ptr %22, i32 0, i32 0
  %24 = load i32, ptr %23, align 8, !tbaa !61
  %25 = sext i32 %24 to i64
  %26 = mul i64 4, %25
  %27 = call noalias ptr @malloc(i64 noundef %26) #10
  br label %29

28:                                               ; preds = %11
  br label %29

29:                                               ; preds = %28, %21
  %30 = phi ptr [ %27, %21 ], [ null, %28 ]
  %31 = load ptr, ptr %3, align 8, !tbaa !14
  %32 = getelementptr inbounds nuw %struct.Vec_Int_t_, ptr %31, i32 0, i32 2
  store ptr %30, ptr %32, align 8, !tbaa !62
  %33 = load ptr, ptr %3, align 8, !tbaa !14
  call void @llvm.lifetime.end.p0(i64 8, ptr %3) #9
  ret ptr %33
}

; Function Attrs: inlinehint nounwind uwtable
define internal i64 @Abc_Clock() #3 {
  %1 = alloca i64, align 8
  %2 = alloca %struct.timespec, align 8
  %3 = alloca i32, align 4
  %4 = alloca i64, align 8
  call void @llvm.lifetime.start.p0(i64 16, ptr %2) #9
  %5 = call i32 @clock_gettime(i32 noundef 1, ptr noundef %2) #9
  %6 = icmp slt i32 %5, 0
  br i1 %6, label %7, label %8

7:                                                ; preds = %0
  store i64 -1, ptr %1, align 8
  store i32 1, ptr %3, align 4
  br label %19

8:                                                ; preds = %0
  call void @llvm.lifetime.start.p0(i64 8, ptr %4) #9
  %9 = getelementptr inbounds nuw %struct.timespec, ptr %2, i32 0, i32 0
  %10 = load i64, ptr %9, align 8, !tbaa !73
  %11 = mul nsw i64 %10, 1000000
  store i64 %11, ptr %4, align 8, !tbaa !39
  %12 = getelementptr inbounds nuw %struct.timespec, ptr %2, i32 0, i32 1
  %13 = load i64, ptr %12, align 8, !tbaa !75
  %14 = mul nsw i64 %13, 1000000
  %15 = sdiv i64 %14, 1000000000
  %16 = load i64, ptr %4, align 8, !tbaa !39
  %17 = add nsw i64 %16, %15
  store i64 %17, ptr %4, align 8, !tbaa !39
  %18 = load i64, ptr %4, align 8, !tbaa !39
  store i64 %18, ptr %1, align 8
  store i32 1, ptr %3, align 4
  call void @llvm.lifetime.end.p0(i64 8, ptr %4) #9
  br label %19

19:                                               ; preds = %8, %7
  call void @llvm.lifetime.end.p0(i64 16, ptr %2) #9
  %20 = load i64, ptr %1, align 8
  ret i64 %20
}

; Function Attrs: nounwind uwtable
define void @Abc_NtkBidecResyn(ptr noundef %0, i32 noundef %1) #0 {
  %3 = alloca ptr, align 8
  %4 = alloca i32, align 4
  %5 = alloca %struct.Bdc_Par_t_, align 4
  %6 = alloca ptr, align 8
  %7 = alloca ptr, align 8
  %8 = alloca ptr, align 8
  %9 = alloca ptr, align 8
  %10 = alloca i32, align 4
  %11 = alloca i32, align 4
  %12 = alloca i32, align 4
  %13 = alloca i32, align 4
  %14 = alloca i64, align 8
  %15 = alloca i32, align 4
  store ptr %0, ptr %3, align 8, !tbaa !35
  store i32 %1, ptr %4, align 4, !tbaa !12
  call void @llvm.lifetime.start.p0(i64 12, ptr %5) #9
  call void @llvm.memset.p0.i64(ptr align 4 %5, i8 0, i64 12, i1 false)
  call void @llvm.lifetime.start.p0(i64 8, ptr %6) #9
  store ptr %5, ptr %6, align 8, !tbaa !37
  call void @llvm.lifetime.start.p0(i64 8, ptr %7) #9
  call void @llvm.lifetime.start.p0(i64 8, ptr %8) #9
  call void @llvm.lifetime.start.p0(i64 8, ptr %9) #9
  call void @llvm.lifetime.start.p0(i64 4, ptr %10) #9
  call void @llvm.lifetime.start.p0(i64 4, ptr %11) #9
  store i32 0, ptr %11, align 4, !tbaa !12
  call void @llvm.lifetime.start.p0(i64 4, ptr %12) #9
  call void @llvm.lifetime.start.p0(i64 4, ptr %13) #9
  call void @llvm.lifetime.start.p0(i64 8, ptr %14) #9
  %16 = call i64 @Abc_Clock()
  store i64 %16, ptr %14, align 8, !tbaa !39
  %17 = load ptr, ptr %3, align 8, !tbaa !35
  %18 = call i32 @Abc_NtkToAig(ptr noundef %17)
  %19 = icmp ne i32 %18, 0
  br i1 %19, label %21, label %20

20:                                               ; preds = %2
  store i32 1, ptr %15, align 4
  br label %117

21:                                               ; preds = %2
  %22 = load ptr, ptr %3, align 8, !tbaa !35
  %23 = call i32 @Abc_NtkGetFaninMax(ptr noundef %22)
  %24 = load ptr, ptr %6, align 8, !tbaa !37
  %25 = getelementptr inbounds nuw %struct.Bdc_Par_t_, ptr %24, i32 0, i32 0
  store i32 %23, ptr %25, align 4, !tbaa !40
  %26 = load i32, ptr %4, align 4, !tbaa !12
  %27 = load ptr, ptr %6, align 8, !tbaa !37
  %28 = getelementptr inbounds nuw %struct.Bdc_Par_t_, ptr %27, i32 0, i32 1
  store i32 %26, ptr %28, align 4, !tbaa !42
  %29 = load ptr, ptr %6, align 8, !tbaa !37
  %30 = getelementptr inbounds nuw %struct.Bdc_Par_t_, ptr %29, i32 0, i32 0
  %31 = load i32, ptr %30, align 4, !tbaa !40
  %32 = icmp sgt i32 %31, 15
  br i1 %32, label %33, label %41

33:                                               ; preds = %21
  %34 = load i32, ptr %4, align 4, !tbaa !12
  %35 = icmp ne i32 %34, 0
  br i1 %35, label %36, label %38

36:                                               ; preds = %33
  %37 = call i32 (ptr, ...) @printf(ptr noundef @.str)
  br label %38

38:                                               ; preds = %36, %33
  %39 = load ptr, ptr %6, align 8, !tbaa !37
  %40 = getelementptr inbounds nuw %struct.Bdc_Par_t_, ptr %39, i32 0, i32 0
  store i32 15, ptr %40, align 4, !tbaa !40
  br label %41

41:                                               ; preds = %38, %21
  %42 = call ptr @Vec_IntAlloc(i32 noundef 0)
  store ptr %42, ptr %9, align 8, !tbaa !14
  %43 = load ptr, ptr %6, align 8, !tbaa !37
  %44 = call ptr @Bdc_ManAlloc(ptr noundef %43)
  store ptr %44, ptr %7, align 8, !tbaa !3
  store i32 0, ptr %10, align 4, !tbaa !12
  br label %45

45:                                               ; preds = %99, %41
  %46 = load i32, ptr %10, align 4, !tbaa !12
  %47 = load ptr, ptr %3, align 8, !tbaa !35
  %48 = getelementptr inbounds nuw %struct.Abc_Ntk_t_, ptr %47, i32 0, i32 5
  %49 = load ptr, ptr %48, align 8, !tbaa !43
  %50 = call i32 @Vec_PtrSize(ptr noundef %49)
  %51 = icmp slt i32 %46, %50
  br i1 %51, label %52, label %56

52:                                               ; preds = %45
  %53 = load ptr, ptr %3, align 8, !tbaa !35
  %54 = load i32, ptr %10, align 4, !tbaa !12
  %55 = call ptr @Abc_NtkObj(ptr noundef %53, i32 noundef %54)
  store ptr %55, ptr %8, align 8, !tbaa !55
  br label %56

56:                                               ; preds = %52, %45
  %57 = phi i1 [ false, %45 ], [ true, %52 ]
  br i1 %57, label %58, label %102

58:                                               ; preds = %56
  %59 = load ptr, ptr %8, align 8, !tbaa !55
  %60 = icmp eq ptr %59, null
  br i1 %60, label %65, label %61

61:                                               ; preds = %58
  %62 = load ptr, ptr %8, align 8, !tbaa !55
  %63 = call i32 @Abc_ObjIsNode(ptr noundef %62)
  %64 = icmp ne i32 %63, 0
  br i1 %64, label %66, label %65

65:                                               ; preds = %61, %58
  br label %98

66:                                               ; preds = %61
  %67 = load ptr, ptr %8, align 8, !tbaa !55
  %68 = call i32 @Abc_ObjFaninNum(ptr noundef %67)
  %69 = icmp sgt i32 %68, 15
  br i1 %69, label %70, label %71

70:                                               ; preds = %66
  br label %99

71:                                               ; preds = %66
  %72 = load ptr, ptr %8, align 8, !tbaa !55
  %73 = getelementptr inbounds nuw %struct.Abc_Obj_t_, ptr %72, i32 0, i32 6
  %74 = load ptr, ptr %73, align 8, !tbaa !57
  %75 = call i32 @Hop_DagSize(ptr noundef %74)
  store i32 %75, ptr %12, align 4, !tbaa !12
  %76 = load ptr, ptr %7, align 8, !tbaa !3
  %77 = load ptr, ptr %3, align 8, !tbaa !35
  %78 = getelementptr inbounds nuw %struct.Abc_Ntk_t_, ptr %77, i32 0, i32 30
  %79 = load ptr, ptr %78, align 8, !tbaa !58
  %80 = load ptr, ptr %8, align 8, !tbaa !55
  %81 = getelementptr inbounds nuw %struct.Abc_Obj_t_, ptr %80, i32 0, i32 6
  %82 = load ptr, ptr %81, align 8, !tbaa !57
  %83 = load ptr, ptr %8, align 8, !tbaa !55
  %84 = call i32 @Abc_ObjFaninNum(ptr noundef %83)
  %85 = load ptr, ptr %9, align 8, !tbaa !14
  %86 = call ptr @Abc_NodeIfNodeResyn(ptr noundef %76, ptr noundef %79, ptr noundef %82, i32 noundef %84, ptr noundef %85, ptr noundef null, float noundef -1.000000e+00)
  %87 = load ptr, ptr %8, align 8, !tbaa !55
  %88 = getelementptr inbounds nuw %struct.Abc_Obj_t_, ptr %87, i32 0, i32 6
  store ptr %86, ptr %88, align 8, !tbaa !57
  %89 = load ptr, ptr %8, align 8, !tbaa !55
  %90 = getelementptr inbounds nuw %struct.Abc_Obj_t_, ptr %89, i32 0, i32 6
  %91 = load ptr, ptr %90, align 8, !tbaa !57
  %92 = call i32 @Hop_DagSize(ptr noundef %91)
  store i32 %92, ptr %13, align 4, !tbaa !12
  %93 = load i32, ptr %12, align 4, !tbaa !12
  %94 = load i32, ptr %13, align 4, !tbaa !12
  %95 = sub nsw i32 %93, %94
  %96 = load i32, ptr %11, align 4, !tbaa !12
  %97 = add nsw i32 %96, %95
  store i32 %97, ptr %11, align 4, !tbaa !12
  br label %98

98:                                               ; preds = %71, %65
  br label %99

99:                                               ; preds = %98, %70
  %100 = load i32, ptr %10, align 4, !tbaa !12
  %101 = add nsw i32 %100, 1
  store i32 %101, ptr %10, align 4, !tbaa !12
  br label %45, !llvm.loop !59

102:                                              ; preds = %56
  %103 = load ptr, ptr %7, align 8, !tbaa !3
  call void @Bdc_ManFree(ptr noundef %103)
  %104 = load ptr, ptr %9, align 8, !tbaa !14
  call void @Vec_IntFree(ptr noundef %104)
  %105 = load i32, ptr %4, align 4, !tbaa !12
  %106 = icmp ne i32 %105, 0
  br i1 %106, label %107, label %116

107:                                              ; preds = %102
  %108 = load i32, ptr %11, align 4, !tbaa !12
  %109 = call i32 (ptr, ...) @printf(ptr noundef @.str.1, i32 noundef %108)
  call void (i32, ptr, ...) @Abc_Print(i32 noundef 1, ptr noundef @.str.2, ptr noundef @.str.3)
  %110 = call i64 @Abc_Clock()
  %111 = load i64, ptr %14, align 8, !tbaa !39
  %112 = sub nsw i64 %110, %111
  %113 = sitofp i64 %112 to double
  %114 = fmul double 1.000000e+00, %113
  %115 = fdiv double %114, 1.000000e+06
  call void (i32, ptr, ...) @Abc_Print(i32 noundef 1, ptr noundef @.str.4, double noundef %115)
  br label %116

116:                                              ; preds = %107, %102
  store i32 0, ptr %15, align 4
  br label %117

117:                                              ; preds = %116, %20
  call void @llvm.lifetime.end.p0(i64 8, ptr %14) #9
  call void @llvm.lifetime.end.p0(i64 4, ptr %13) #9
  call void @llvm.lifetime.end.p0(i64 4, ptr %12) #9
  call void @llvm.lifetime.end.p0(i64 4, ptr %11) #9
  call void @llvm.lifetime.end.p0(i64 4, ptr %10) #9
  call void @llvm.lifetime.end.p0(i64 8, ptr %9) #9
  call void @llvm.lifetime.end.p0(i64 8, ptr %8) #9
  call void @llvm.lifetime.end.p0(i64 8, ptr %7) #9
  call void @llvm.lifetime.end.p0(i64 8, ptr %6) #9
  call void @llvm.lifetime.end.p0(i64 12, ptr %5) #9
  %118 = load i32, ptr %15, align 4
  switch i32 %118, label %120 [
    i32 0, label %119
    i32 1, label %119
  ]

119:                                              ; preds = %117, %117
  ret void

120:                                              ; preds = %117
  unreachable
}