; Function Attrs: nounwind uwtable
define void @Abc_NtkBidecResyn(ptr noundef %0, i32 noundef %1) local_unnamed_addr #0 {
  %3 = alloca %struct.timespec, align 8
  %4 = alloca %struct.timespec, align 8
  %5 = alloca %struct.Bdc_Par_t_, align 4
  call void @llvm.lifetime.start.p0(i64 12, ptr nonnull %5) #11
  %6 = getelementptr inbounds nuw i8, ptr %5, i64 8
  store i32 0, ptr %6, align 4
  call void @llvm.lifetime.start.p0(i64 16, ptr nonnull %4) #11
  %7 = call i32 @clock_gettime(i32 noundef 1, ptr noundef nonnull %4) #11
  %8 = icmp slt i32 %7, 0
  br i1 %8, label %Abc_Clock.exit, label %9

9:                                                ; preds = %2
  %10 = load i64, ptr %4, align 8, !tbaa !25
  %.neg43 = mul i64 %10, -1000000
  %11 = getelementptr inbounds nuw i8, ptr %4, i64 8
  %12 = load i64, ptr %11, align 8, !tbaa !27
  %.neg = sdiv i64 %12, -1000
  %.neg44 = add i64 %.neg, %.neg43
  br label %Abc_Clock.exit

Abc_Clock.exit:                                   ; preds = %2, %9
  %.0.i.neg = phi i64 [ %.neg44, %9 ], [ 1, %2 ]
  call void @llvm.lifetime.end.p0(i64 16, ptr nonnull %4) #11
  %13 = call i32 @Abc_NtkToAig(ptr noundef %0) #11
  %.not = icmp eq i32 %13, 0
  br i1 %.not, label %72, label %14

14:                                               ; preds = %Abc_Clock.exit
  %15 = call i32 @Abc_NtkGetFaninMax(ptr noundef %0) #11
  store i32 %15, ptr %5, align 4, !tbaa !28
  %16 = getelementptr inbounds nuw i8, ptr %5, i64 4
  store i32 %1, ptr %16, align 4, !tbaa !30
  %17 = icmp sgt i32 %15, 15
  br i1 %17, label %18, label %21

18:                                               ; preds = %14
  %.not34 = icmp eq i32 %1, 0
  br i1 %.not34, label %20, label %19

19:                                               ; preds = %18
  %puts = call i32 @puts(ptr nonnull dereferenceable(1) @str)
  br label %20

20:                                               ; preds = %19, %18
  store i32 15, ptr %5, align 4, !tbaa !28
  br label %21

21:                                               ; preds = %20, %14
  %calloc.i = call noalias noundef dereferenceable_or_null(16) ptr @calloc(i64 1, i64 16)
  %22 = call ptr @Bdc_ManAlloc(ptr noundef nonnull %5) #11
  %23 = getelementptr inbounds nuw i8, ptr %0, i64 32
  %24 = load ptr, ptr %23, align 8, !tbaa !31
  %25 = getelementptr i8, ptr %24, i64 4
  %.val47 = load i32, ptr %25, align 4, !tbaa !47
  %26 = icmp sgt i32 %.val47, 0
  br i1 %26, label %.lr.ph, label %.critedge

.lr.ph:                                           ; preds = %21
  %27 = getelementptr inbounds nuw i8, ptr %0, i64 256
  br label %28

28:                                               ; preds = %.lr.ph, %50
  %29 = phi ptr [ %24, %.lr.ph ], [ %51, %50 ]
  %indvars.iv = phi i64 [ 0, %.lr.ph ], [ %indvars.iv.next, %50 ]
  %.03248 = phi i32 [ 0, %.lr.ph ], [ %.1, %50 ]
  %30 = getelementptr i8, ptr %29, i64 8
  %.val37.val = load ptr, ptr %30, align 8, !tbaa !20
  %31 = getelementptr inbounds nuw ptr, ptr %.val37.val, i64 %indvars.iv
  %32 = load ptr, ptr %31, align 8, !tbaa !22
  %33 = icmp eq ptr %32, null
  br i1 %33, label %50, label %34

34:                                               ; preds = %28
  %35 = getelementptr i8, ptr %32, i64 20
  %.val38 = load i32, ptr %35, align 4
  %36 = and i32 %.val38, 15
  %.not45 = icmp eq i32 %36, 7
  br i1 %.not45, label %37, label %50

37:                                               ; preds = %34
  %38 = getelementptr i8, ptr %32, i64 28
  %.val39 = load i32, ptr %38, align 4, !tbaa !48
  %39 = icmp sgt i32 %.val39, 15
  br i1 %39, label %50, label %40

40:                                               ; preds = %37
  %41 = getelementptr inbounds nuw i8, ptr %32, i64 56
  %42 = load ptr, ptr %41, align 8, !tbaa !51
  %43 = call i32 @Hop_DagSize(ptr noundef %42) #11
  %44 = load ptr, ptr %27, align 8, !tbaa !52
  %45 = load ptr, ptr %41, align 8, !tbaa !51
  %.val40 = load i32, ptr %38, align 4, !tbaa !48
  %46 = call ptr @Abc_NodeIfNodeResyn(ptr noundef %22, ptr noundef %44, ptr noundef %45, i32 noundef %.val40, ptr noundef %calloc.i, ptr noundef null, float noundef -1.000000e+00)
  store ptr %46, ptr %41, align 8, !tbaa !51
  %47 = call i32 @Hop_DagSize(ptr noundef %46) #11
  %48 = add i32 %43, %.03248
  %49 = sub i32 %48, %47
  %.pre = load ptr, ptr %23, align 8, !tbaa !31
  br label %50

50:                                               ; preds = %40, %34, %28, %37
  %51 = phi ptr [ %29, %28 ], [ %29, %37 ], [ %.pre, %40 ], [ %29, %34 ]
  %.1 = phi i32 [ %.03248, %28 ], [ %.03248, %37 ], [ %49, %40 ], [ %.03248, %34 ]
  %indvars.iv.next = add nuw nsw i64 %indvars.iv, 1
  %52 = getelementptr i8, ptr %51, i64 4
  %.val = load i32, ptr %52, align 4, !tbaa !47
  %53 = sext i32 %.val to i64
  %54 = icmp slt i64 %indvars.iv.next, %53
  br i1 %54, label %28, label %.critedge, !llvm.loop !53

.critedge:                                        ; preds = %50, %21
  %.032.lcssa = phi i32 [ 0, %21 ], [ %.1, %50 ]
  call void @Bdc_ManFree(ptr noundef %22) #11
  %55 = getelementptr inbounds nuw i8, ptr %calloc.i, i64 8
  %56 = load ptr, ptr %55, align 8, !tbaa !54
  %.not.i = icmp eq ptr %56, null
  br i1 %.not.i, label %Vec_IntFree.exit, label %57

57:                                               ; preds = %.critedge
  call void @free(ptr noundef nonnull %56) #11
  br label %Vec_IntFree.exit

Vec_IntFree.exit:                                 ; preds = %.critedge, %57
  call void @free(ptr noundef nonnull %calloc.i) #11
  %.not35 = icmp eq i32 %1, 0
  br i1 %.not35, label %72, label %58

58:                                               ; preds = %Vec_IntFree.exit
  %59 = call i32 (ptr, ...) @printf(ptr noundef nonnull dereferenceable(1) @.str.1, i32 noundef %.032.lcssa)
  call void (i32, ptr, ...) @Abc_Print(i32 poison, ptr noundef nonnull @.str.2, ptr noundef nonnull @.str.3)
  call void @llvm.lifetime.start.p0(i64 16, ptr nonnull %3) #11
  %60 = call i32 @clock_gettime(i32 noundef 1, ptr noundef nonnull %3) #11
  %61 = icmp slt i32 %60, 0
  br i1 %61, label %Abc_Clock.exit42, label %62

62:                                               ; preds = %58
  %63 = load i64, ptr %3, align 8, !tbaa !25
  %64 = mul nsw i64 %63, 1000000
  %65 = getelementptr inbounds nuw i8, ptr %3, i64 8
  %66 = load i64, ptr %65, align 8, !tbaa !27
  %67 = sdiv i64 %66, 1000
  %68 = add nsw i64 %67, %64
  br label %Abc_Clock.exit42

Abc_Clock.exit42:                                 ; preds = %58, %62
  %.0.i41 = phi i64 [ %68, %62 ], [ -1, %58 ]
  call void @llvm.lifetime.end.p0(i64 16, ptr nonnull %3) #11
  %69 = add i64 %.0.i41, %.0.i.neg
  %70 = sitofp i64 %69 to double
  %71 = fdiv double %70, 1.000000e+06
  call void (i32, ptr, ...) @Abc_Print(i32 poison, ptr noundef nonnull @.str.4, double noundef %71)
  br label %72

72:                                               ; preds = %Vec_IntFree.exit, %Abc_Clock.exit42, %Abc_Clock.exit
  call void @llvm.lifetime.end.p0(i64 12, ptr nonnull %5) #11
  ret void
}